target datalayout = "e-m:e-p270:32:32-p271:32:32-p272:64:64-i64:64-i128:128-f80:128-n8:16:32:64-S128"
target triple = "x86_64-pc-linux-gnu"

%struct.stat = type { i64, i64, i64, i32, i32, i32, i32, i64, i64, i64, i64, %struct.timespec, %struct.timespec, %struct.timespec, [3 x i64] }
%struct.timespec = type { i64, i64 }

; Function Attrs: mustprogress nounwind uwtable
define internal noundef zeroext i1 @_ZN32pxrInternal_v0_24__pxrReserved__L7Tf_StatERKNSt7__cxx1112basic_stringIcSt11char_traitsIcESaIcEEEbP4stat(ptr noundef nonnull align 8 dereferenceable(32) %0, i1 noundef zeroext %1, ptr noundef %2) #1 {
  %4 = alloca i1, align 1
  %5 = alloca ptr, align 8
  %6 = alloca i8, align 1
  %7 = alloca ptr, align 8
  %8 = alloca %struct.stat, align 8
  %9 = alloca i32, align 4
  store ptr %0, ptr %5, align 8
  %10 = zext i1 %1 to i8
  store i8 %10, ptr %6, align 1
  store ptr %2, ptr %7, align 8
  %11 = load ptr, ptr %5, align 8
  %12 = call noundef zeroext i1 @_ZNKSt7__cxx1112basic_stringIcSt11char_traitsIcESaIcEE5emptyEv(ptr noundef nonnull align 8 dereferenceable(32) %11) #6
  br i1 %12, label %13, label %14

13:                                               ; preds = %3
  store i1 false, ptr %4, align 1
  br label %35

14:                                               ; preds = %3
  %15 = load ptr, ptr %7, align 8
  %16 = icmp ne ptr %15, null
  br i1 %16, label %18, label %17

17:                                               ; preds = %14
  store ptr %8, ptr %7, align 8
  br label %18

18:                                               ; preds = %17, %14
  %19 = load i8, ptr %6, align 1
  %20 = trunc i8 %19 to i1
  br i1 %20, label %21, label %26

21:                                               ; preds = %18
  %22 = load ptr, ptr %5, align 8
  %23 = call noundef ptr @_ZNKSt7__cxx1112basic_stringIcSt11char_traitsIcESaIcEE5c_strEv(ptr noundef nonnull align 8 dereferenceable(32) %22) #6
  %24 = load ptr, ptr %7, align 8
  %25 = call i32 @stat(ptr noundef %23, ptr noundef %24) #6
  br label %31

26:                                               ; preds = %18
  %27 = load ptr, ptr %5, align 8
  %28 = call noundef ptr @_ZNKSt7__cxx1112basic_stringIcSt11char_traitsIcESaIcEE5c_strEv(ptr noundef nonnull align 8 dereferenceable(32) %27) #6
  %29 = load ptr, ptr %7, align 8
  %30 = call i32 @lstat(ptr noundef %28, ptr noundef %29) #6
  br label %31

31:                                               ; preds = %26, %21
  %32 = phi i32 [ %25, %21 ], [ %30, %26 ]
  store i32 %32, ptr %9, align 4
  %33 = load i32, ptr %9, align 4
  %34 = icmp eq i32 %33, 0
  store i1 %34, ptr %4, align 1
  br label %35

35:                                               ; preds = %31, %13
  %36 = load i1, ptr %4, align 1
  ret i1 %36
}

; Function Attrs: mustprogress uwtable
define noundef zeroext i1 @_ZN32pxrInternal_v0_24__pxrReserved__8TfIsLinkERKNSt7__cxx1112basic_stringIcSt11char_traitsIcESaIcEEE(ptr noundef nonnull align 8 dereferenceable(32) %0) #0 {
  %2 = alloca i1, align 1
  %3 = alloca ptr, align 8
  %4 = alloca %struct.stat, align 8
  store ptr %0, ptr %3, align 8
  %5 = load ptr, ptr %3, align 8
  %6 = call noundef zeroext i1 @_ZN32pxrInternal_v0_24__pxrReserved__L7Tf_StatERKNSt7__cxx1112basic_stringIcSt11char_traitsIcESaIcEEEbP4stat(ptr noundef nonnull align 8 dereferenceable(32) %5, i1 noundef zeroext false, ptr noundef %4)
  br i1 %6, label %7, label %12

7:                                                ; preds = %1
  %8 = getelementptr inbounds nuw %struct.stat, ptr %4, i32 0, i32 3
  %9 = load i32, ptr %8, align 8
  %10 = and i32 %9, 61440
  %11 = icmp eq i32 %10, 40960
  store i1 %11, ptr %2, align 1
  br label %13

12:                                               ; preds = %1
  store i1 false, ptr %2, align 1
  br label %13

13:                                               ; preds = %12, %7
  %14 = load i1, ptr %2, align 1
  ret i1 %14
}