; Function Attrs: mustprogress nounwind uwtable
define noundef zeroext i1 @_ZN32pxrInternal_v0_24__pxrReserved__8TfIsLinkERKNSt7__cxx1112basic_stringIcSt11char_traitsIcESaIcEEE(ptr noundef nonnull align 8 dereferenceable(32) %0) local_unnamed_addr #0 {
  %2 = alloca %struct.stat, align 8
  %3 = tail call noundef zeroext i1 @_ZNKSt7__cxx1112basic_stringIcSt11char_traitsIcESaIcEE5emptyEv(ptr noundef nonnull align 8 dereferenceable(32) %0) #21
  br i1 %3, label %_ZN32pxrInternal_v0_24__pxrReserved__L7Tf_StatERKNSt7__cxx1112basic_stringIcSt11char_traitsIcESaIcEEEbP4stat.exit, label %4

4:                                                ; preds = %1
  %5 = tail call noundef ptr @_ZNKSt7__cxx1112basic_stringIcSt11char_traitsIcESaIcEE5c_strEv(ptr noundef nonnull align 8 dereferenceable(32) %0) #21
  %6 = call i32 @lstat(ptr noundef %5, ptr noundef nonnull %2) #21
  %7 = icmp eq i32 %6, 0
  %.phi.trans.insert = getelementptr inbounds nuw i8, ptr %2, i64 24
  %.pre = load i32, ptr %.phi.trans.insert, align 8
  %8 = and i32 %.pre, 61440
  %9 = icmp eq i32 %8, 40960
  %10 = select i1 %7, i1 %9, i1 false
  br label %_ZN32pxrInternal_v0_24__pxrReserved__L7Tf_StatERKNSt7__cxx1112basic_stringIcSt11char_traitsIcESaIcEEEbP4stat.exit

_ZN32pxrInternal_v0_24__pxrReserved__L7Tf_StatERKNSt7__cxx1112basic_stringIcSt11char_traitsIcESaIcEEEbP4stat.exit: ; preds = %1, %4
  %.0.i = phi i1 [ %10, %4 ], [ false, %1 ]
  ret i1 %.0.i
}